target datalayout = "e-m:e-p270:32:32-p271:32:32-p272:64:64-i64:64-i128:128-f80:128-n8:16:32:64-S128"
target triple = "x86_64-pc-linux-gnu"

%struct.Font = type { i32, i32, i32, %struct.Texture, ptr, ptr }
%struct.Texture = type { i32, i32, i32, i32, i32 }

; Function Attrs: nounwind uwtable
define void @LoadFontEx(ptr dead_on_unwind noalias writable sret(%struct.Font) align 8 %0, ptr noundef %1, i32 noundef %2, ptr noundef %3, i32 noundef %4) #0 {
  %6 = alloca ptr, align 8
  %7 = alloca i32, align 4
  %8 = alloca ptr, align 8
  %9 = alloca i32, align 4
  %10 = alloca i32, align 4
  %11 = alloca ptr, align 8
  %12 = alloca %struct.Font, align 8
  store ptr %1, ptr %6, align 8
  store i32 %2, ptr %7, align 4
  store ptr %3, ptr %8, align 8
  store i32 %4, ptr %9, align 4
  call void @llvm.memset.p0.i64(ptr align 8 %0, i8 0, i64 48, i1 false)
  call void @llvm.lifetime.start.p0(i64 4, ptr %10) #13
  store i32 0, ptr %10, align 4
  call void @llvm.lifetime.start.p0(i64 8, ptr %11) #13
  %13 = load ptr, ptr %6, align 8
  %14 = call ptr @LoadFileData(ptr noundef %13, ptr noundef %10)
  store ptr %14, ptr %11, align 8
  %15 = load ptr, ptr %11, align 8
  %16 = icmp ne ptr %15, null
  br i1 %16, label %17, label %26

17:                                               ; preds = %5
  call void @llvm.lifetime.start.p0(i64 48, ptr %12) #13
  %18 = load ptr, ptr %6, align 8
  %19 = call ptr @GetFileExtension(ptr noundef %18)
  %20 = load ptr, ptr %11, align 8
  %21 = load i32, ptr %10, align 4
  %22 = load i32, ptr %7, align 4
  %23 = load ptr, ptr %8, align 8
  %24 = load i32, ptr %9, align 4
  call void @LoadFontFromMemory(ptr dead_on_unwind writable sret(%struct.Font) align 8 %12, ptr noundef %19, ptr noundef %20, i32 noundef %21, i32 noundef %22, ptr noundef %23, i32 noundef %24)
  call void @llvm.memcpy.p0.p0.i64(ptr align 8 %0, ptr align 8 %12, i64 48, i1 false)
  call void @llvm.lifetime.end.p0(i64 48, ptr %12) #13
  %25 = load ptr, ptr %11, align 8
  call void @UnloadFileData(ptr noundef %25)
  br label %26

26:                                               ; preds = %17, %5
  call void @llvm.lifetime.end.p0(i64 8, ptr %11) #13
  call void @llvm.lifetime.end.p0(i64 4, ptr %10) #13
  ret void
}