; Function Attrs: nounwind uwtable
define void @LoadFontEx(ptr dead_on_unwind noalias writable writeonly sret(%struct.Font) align 8 captures(none) initializes((0, 48)) %0, ptr noundef %1, i32 noundef %2, ptr noundef captures(address_is_null) %3, i32 noundef %4) local_unnamed_addr #10 {
  %6 = alloca i32, align 4
  tail call void @llvm.memset.p0.i64(ptr noundef nonnull align 8 dereferenceable(48) %0, i8 0, i64 48, i1 false)
  call void @llvm.lifetime.start.p0(i64 4, ptr nonnull %6) #41
  store i32 0, ptr %6, align 4
  %7 = call ptr @LoadFileData(ptr noundef %1, ptr noundef nonnull %6) #41
  %.not = icmp eq ptr %7, null
  br i1 %.not, label %11, label %8

8:                                                ; preds = %5
  %9 = call ptr @GetFileExtension(ptr noundef %1) #41
  %10 = load i32, ptr %6, align 4
  call void @LoadFontFromMemory(ptr dead_on_unwind nonnull writable sret(%struct.Font) align 8 %0, ptr noundef %9, ptr noundef nonnull %7, i32 noundef %10, i32 noundef %2, ptr noundef %3, i32 noundef %4)
  call void @UnloadFileData(ptr noundef nonnull %7) #41
  br label %11

11:                                               ; preds = %8, %5
  call void @llvm.lifetime.end.p0(i64 4, ptr nonnull %6) #41
  ret void
}